target datalayout = "e-m:e-p270:32:32-p271:32:32-p272:64:64-i64:64-i128:128-f80:128-n8:16:32:64-S128"
target triple = "x86_64-unknown-linux-gnu"

%struct.MemoryRegion = type { %struct.Object, i8, i8, i8, i8, i8, i8, i8, i8, i8, i8, ptr, ptr, ptr, ptr, ptr, ptr, i32, i128, i64, ptr, i64, i8, i8, i8, i8, i8, ptr, i64, i32, %union.anon, %union.anon.1, %union.anon.2, ptr, i32, ptr, ptr, i8 }
%struct.Object = type { ptr, ptr, ptr, i32, ptr }
%union.anon = type { %struct.QTailQLink }
%struct.QTailQLink = type { ptr, ptr }
%union.anon.1 = type { %struct.QTailQLink }
%union.anon.2 = type { %struct.QTailQLink }
%struct.AddressSpace = type { %struct.rcu_head, ptr, ptr, ptr, i32, i32, ptr, %union.anon.18, %union.anon.19 }
%struct.rcu_head = type { ptr, ptr }
%union.anon.18 = type { %struct.QTailQLink }
%union.anon.19 = type { %struct.QTailQLink }
%struct.IOMMUTLBEntry = type { ptr, i64, i64, i64, i32 }
%struct.MemTxAttrs = type { i32 }
%struct.MemoryRegionSection = type { i128, ptr, ptr, i64, i64, i8, i8, i8 }
%struct.IOMMUMemoryRegionClass = type { %struct.MemoryRegionClass, ptr, ptr, ptr, ptr, ptr, ptr, ptr, ptr, ptr }
%struct.MemoryRegionClass = type { %struct.ObjectClass }
%struct.ObjectClass = type { ptr, ptr, [4 x ptr], [4 x ptr], ptr, ptr }
%struct.FlatView = type { %struct.rcu_head, i32, ptr, i32, i32, ptr, ptr }

@io_mem_unassigned = internal global %struct.MemoryRegion zeroinitializer, align 16
@.str.79 = private unnamed_addr constant [100 x i8] c"/home/dtcxzyw/WorkSpace/Projects/compilers/llvm-opt-benchmark/bench/qemu/qemu/include/exec/memory.h\00", align 1
@__func__.address_space_to_flatview = private unnamed_addr constant [26 x i8] c"address_space_to_flatview\00", align 1

; Function Attrs: nounwind sspstrong uwtable
define internal ptr @address_space_to_flatview(ptr noundef %as) #0 {
entry:
  %as.addr = alloca ptr, align 8
  %_val0 = alloca ptr, align 8
  %tmp = alloca ptr, align 8
  store ptr %as, ptr %as.addr, align 8
  br label %while.cond

while.cond:                                       ; preds = %do.end, %entry
  br i1 false, label %while.body, label %while.end

while.body:                                       ; preds = %while.cond
  br label %do.body

do.body:                                          ; preds = %while.body
  call void @g_assertion_message_expr(ptr noundef null, ptr noundef @.str.79, i32 noundef 1146, ptr noundef @__func__.address_space_to_flatview, ptr noundef null) #14
  unreachable

do.end:                                           ; No predecessors!
  br label %while.cond

while.end:                                        ; preds = %while.cond
  %0 = load ptr, ptr %as.addr, align 8
  %current_map = getelementptr inbounds %struct.AddressSpace, ptr %0, i32 0, i32 3
  %1 = load atomic i64, ptr %current_map monotonic, align 8
  store i64 %1, ptr %_val0, align 8
  call void asm sideeffect "", "~{memory},~{dirflag},~{fpsr},~{flags}"() #15, !srcloc !7
  %2 = load ptr, ptr %_val0, align 8
  store ptr %2, ptr %tmp, align 8
  %3 = load ptr, ptr %tmp, align 8
  ret ptr %3
}

; Function Attrs: nounwind sspstrong uwtable
define internal ptr @address_space_to_dispatch(ptr noundef %as) #0 {
entry:
  %as.addr = alloca ptr, align 8
  store ptr %as, ptr %as.addr, align 8
  %0 = load ptr, ptr %as.addr, align 8
  %call = call ptr @address_space_to_flatview(ptr noundef %0)
  %call1 = call ptr @flatview_to_dispatch(ptr noundef %call)
  ret ptr %call1
}

; Function Attrs: nounwind sspstrong uwtable
define internal ptr @memory_region_get_iommu_class_nocheck(ptr noundef %iommu_mr) #0 {
entry:
  %iommu_mr.addr = alloca ptr, align 8
  store ptr %iommu_mr, ptr %iommu_mr.addr, align 8
  %0 = load ptr, ptr %iommu_mr.addr, align 8
  %class = getelementptr inbounds %struct.Object, ptr %0, i32 0, i32 0
  %1 = load ptr, ptr %class, align 8
  ret ptr %1
}

; Function Attrs: nounwind sspstrong uwtable
define internal void @address_space_translate_iommu(ptr noalias sret(%struct.MemoryRegionSection) align 16 %agg.result, ptr noundef %iommu_mr, ptr noundef %xlat, ptr noundef %plen_out, ptr noundef %page_mask_out, i1 noundef zeroext %is_write, i1 noundef zeroext %is_mmio, ptr noundef %target_as, i32 %attrs.coerce) #0 {
entry:
  %attrs = alloca %struct.MemTxAttrs, align 4
  %iommu_mr.addr = alloca ptr, align 8
  %xlat.addr = alloca ptr, align 8
  %plen_out.addr = alloca ptr, align 8
  %page_mask_out.addr = alloca ptr, align 8
  %is_write.addr = alloca i8, align 1
  %is_mmio.addr = alloca i8, align 1
  %target_as.addr = alloca ptr, align 8
  %section = alloca ptr, align 8
  %page_mask = alloca i64, align 8
  %addr = alloca i64, align 8
  %imrc = alloca ptr, align 8
  %iommu_idx = alloca i32, align 4
  %iotlb = alloca %struct.IOMMUTLBEntry, align 8
  %tmp = alloca %struct.IOMMUTLBEntry, align 8
  %_a22 = alloca i64, align 8
  %_b23 = alloca i64, align 8
  %tmp17 = alloca i64, align 8
  %coerce.dive = getelementptr inbounds %struct.MemTxAttrs, ptr %attrs, i32 0, i32 0
  store i32 %attrs.coerce, ptr %coerce.dive, align 4
  store ptr %iommu_mr, ptr %iommu_mr.addr, align 8
  store ptr %xlat, ptr %xlat.addr, align 8
  store ptr %plen_out, ptr %plen_out.addr, align 8
  store ptr %page_mask_out, ptr %page_mask_out.addr, align 8
  %frombool = zext i1 %is_write to i8
  store i8 %frombool, ptr %is_write.addr, align 1
  %frombool1 = zext i1 %is_mmio to i8
  store i8 %frombool1, ptr %is_mmio.addr, align 1
  store ptr %target_as, ptr %target_as.addr, align 8
  store i64 -1, ptr %page_mask, align 8
  br label %do.body

do.body:                                          ; preds = %do.cond, %entry
  %0 = load ptr, ptr %xlat.addr, align 8
  %1 = load i64, ptr %0, align 8
  store i64 %1, ptr %addr, align 8
  %2 = load ptr, ptr %iommu_mr.addr, align 8
  %call = call ptr @memory_region_get_iommu_class_nocheck(ptr noundef %2)
  store ptr %call, ptr %imrc, align 8
  store i32 0, ptr %iommu_idx, align 4
  %3 = load ptr, ptr %imrc, align 8
  %attrs_to_index = getelementptr inbounds %struct.IOMMUMemoryRegionClass, ptr %3, i32 0, i32 6
  %4 = load ptr, ptr %attrs_to_index, align 8
  %tobool = icmp ne ptr %4, null
  br i1 %tobool, label %if.then, label %if.end

if.then:                                          ; preds = %do.body
  %5 = load ptr, ptr %imrc, align 8
  %attrs_to_index2 = getelementptr inbounds %struct.IOMMUMemoryRegionClass, ptr %5, i32 0, i32 6
  %6 = load ptr, ptr %attrs_to_index2, align 8
  %7 = load ptr, ptr %iommu_mr.addr, align 8
  %coerce.dive3 = getelementptr inbounds %struct.MemTxAttrs, ptr %attrs, i32 0, i32 0
  %8 = load i32, ptr %coerce.dive3, align 4
  %call4 = call i32 %6(ptr noundef %7, i32 %8)
  store i32 %call4, ptr %iommu_idx, align 4
  br label %if.end

if.end:                                           ; preds = %if.then, %do.body
  %9 = load ptr, ptr %imrc, align 8
  %translate = getelementptr inbounds %struct.IOMMUMemoryRegionClass, ptr %9, i32 0, i32 1
  %10 = load ptr, ptr %translate, align 8
  %11 = load ptr, ptr %iommu_mr.addr, align 8
  %12 = load i64, ptr %addr, align 8
  %13 = load i8, ptr %is_write.addr, align 1
  %tobool5 = trunc i8 %13 to i1
  %cond = select i1 %tobool5, i32 2, i32 1
  %14 = load i32, ptr %iommu_idx, align 4
  call void %10(ptr sret(%struct.IOMMUTLBEntry) align 8 %tmp, ptr noundef %11, i64 noundef %12, i32 noundef %cond, i32 noundef %14)
  call void @llvm.memcpy.p0.p0.i64(ptr align 8 %iotlb, ptr align 8 %tmp, i64 40, i1 false)
  %perm = getelementptr inbounds %struct.IOMMUTLBEntry, ptr %iotlb, i32 0, i32 4
  %15 = load i32, ptr %perm, align 8
  %16 = load i8, ptr %is_write.addr, align 1
  %tobool6 = trunc i8 %16 to i1
  %conv = zext i1 %tobool6 to i32
  %shl = shl i32 1, %conv
  %and = and i32 %15, %shl
  %tobool7 = icmp ne i32 %and, 0
  br i1 %tobool7, label %if.end9, label %if.then8

if.then8:                                         ; preds = %if.end
  br label %unassigned

if.end9:                                          ; preds = %if.end
  %translated_addr = getelementptr inbounds %struct.IOMMUTLBEntry, ptr %iotlb, i32 0, i32 2
  %17 = load i64, ptr %translated_addr, align 8
  %addr_mask = getelementptr inbounds %struct.IOMMUTLBEntry, ptr %iotlb, i32 0, i32 3
  %18 = load i64, ptr %addr_mask, align 8
  %not = xor i64 %18, -1
  %and10 = and i64 %17, %not
  %19 = load i64, ptr %addr, align 8
  %addr_mask11 = getelementptr inbounds %struct.IOMMUTLBEntry, ptr %iotlb, i32 0, i32 3
  %20 = load i64, ptr %addr_mask11, align 8
  %and12 = and i64 %19, %20
  %or = or i64 %and10, %and12
  store i64 %or, ptr %addr, align 8
  %addr_mask13 = getelementptr inbounds %struct.IOMMUTLBEntry, ptr %iotlb, i32 0, i32 3
  %21 = load i64, ptr %addr_mask13, align 8
  %22 = load i64, ptr %page_mask, align 8
  %and14 = and i64 %22, %21
  store i64 %and14, ptr %page_mask, align 8
  %23 = load ptr, ptr %plen_out.addr, align 8
  %24 = load i64, ptr %23, align 8
  store i64 %24, ptr %_a22, align 8
  %25 = load i64, ptr %addr, align 8
  %addr_mask15 = getelementptr inbounds %struct.IOMMUTLBEntry, ptr %iotlb, i32 0, i32 3
  %26 = load i64, ptr %addr_mask15, align 8
  %or16 = or i64 %25, %26
  %27 = load i64, ptr %addr, align 8
  %sub = sub i64 %or16, %27
  %add = add i64 %sub, 1
  store i64 %add, ptr %_b23, align 8
  %28 = load i64, ptr %_a22, align 8
  %29 = load i64, ptr %_b23, align 8
  %cmp = icmp ult i64 %28, %29
  br i1 %cmp, label %cond.true, label %cond.false

cond.true:                                        ; preds = %if.end9
  %30 = load i64, ptr %_a22, align 8
  br label %cond.end

cond.false:                                       ; preds = %if.end9
  %31 = load i64, ptr %_b23, align 8
  br label %cond.end

cond.end:                                         ; preds = %cond.false, %cond.true
  %cond19 = phi i64 [ %30, %cond.true ], [ %31, %cond.false ]
  store i64 %cond19, ptr %tmp17, align 8
  %32 = load i64, ptr %tmp17, align 8
  %33 = load ptr, ptr %plen_out.addr, align 8
  store i64 %32, ptr %33, align 8
  %target_as20 = getelementptr inbounds %struct.IOMMUTLBEntry, ptr %iotlb, i32 0, i32 0
  %34 = load ptr, ptr %target_as20, align 8
  %35 = load ptr, ptr %target_as.addr, align 8
  store ptr %34, ptr %35, align 8
  %target_as21 = getelementptr inbounds %struct.IOMMUTLBEntry, ptr %iotlb, i32 0, i32 0
  %36 = load ptr, ptr %target_as21, align 8
  %call22 = call ptr @address_space_to_dispatch(ptr noundef %36)
  %37 = load i64, ptr %addr, align 8
  %38 = load ptr, ptr %xlat.addr, align 8
  %39 = load ptr, ptr %plen_out.addr, align 8
  %40 = load i8, ptr %is_mmio.addr, align 1
  %tobool23 = trunc i8 %40 to i1
  %call24 = call ptr @address_space_translate_internal(ptr noundef %call22, i64 noundef %37, ptr noundef %38, ptr noundef %39, i1 noundef zeroext %tobool23)
  store ptr %call24, ptr %section, align 8
  %41 = load ptr, ptr %section, align 8
  %mr = getelementptr inbounds %struct.MemoryRegionSection, ptr %41, i32 0, i32 1
  %42 = load ptr, ptr %mr, align 16
  %call25 = call ptr @memory_region_get_iommu(ptr noundef %42)
  store ptr %call25, ptr %iommu_mr.addr, align 8
  br label %do.cond

do.cond:                                          ; preds = %cond.end
  %43 = load ptr, ptr %iommu_mr.addr, align 8
  %tobool26 = icmp ne ptr %43, null
  %lnot = xor i1 %tobool26, true
  %lnot27 = xor i1 %lnot, true
  %lnot.ext = zext i1 %lnot27 to i32
  %conv28 = sext i32 %lnot.ext to i64
  %tobool29 = icmp ne i64 %conv28, 0
  br i1 %tobool29, label %do.body, label %do.end, !llvm.loop !69

do.end:                                           ; preds = %do.cond
  %44 = load ptr, ptr %page_mask_out.addr, align 8
  %tobool30 = icmp ne ptr %44, null
  br i1 %tobool30, label %if.then31, label %if.end32

if.then31:                                        ; preds = %do.end
  %45 = load i64, ptr %page_mask, align 8
  %46 = load ptr, ptr %page_mask_out.addr, align 8
  store i64 %45, ptr %46, align 8
  br label %if.end32

if.end32:                                         ; preds = %if.then31, %do.end
  %47 = load ptr, ptr %section, align 8
  call void @llvm.memcpy.p0.p0.i64(ptr align 16 %agg.result, ptr align 16 %47, i64 64, i1 false)
  br label %return

unassigned:                                       ; preds = %if.then8
  call void @llvm.memset.p0.i64(ptr align 16 %agg.result, i8 0, i64 64, i1 false)
  %mr33 = getelementptr inbounds %struct.MemoryRegionSection, ptr %agg.result, i32 0, i32 1
  store ptr @io_mem_unassigned, ptr %mr33, align 16
  br label %return

return:                                           ; preds = %unassigned, %if.end32
  ret void
}

; Function Attrs: nounwind sspstrong uwtable
define internal ptr @memory_region_get_iommu(ptr noundef %mr) #0 {
entry:
  %retval = alloca ptr, align 8
  %mr.addr = alloca ptr, align 8
  store ptr %mr, ptr %mr.addr, align 8
  %0 = load ptr, ptr %mr.addr, align 8
  %alias = getelementptr inbounds %struct.MemoryRegion, ptr %0, i32 0, i32 27
  %1 = load ptr, ptr %alias, align 16
  %tobool = icmp ne ptr %1, null
  br i1 %tobool, label %if.then, label %if.end

if.then:                                          ; preds = %entry
  %2 = load ptr, ptr %mr.addr, align 8
  %alias1 = getelementptr inbounds %struct.MemoryRegion, ptr %2, i32 0, i32 27
  %3 = load ptr, ptr %alias1, align 16
  %call = call ptr @memory_region_get_iommu(ptr noundef %3)
  store ptr %call, ptr %retval, align 8
  br label %return

if.end:                                           ; preds = %entry
  %4 = load ptr, ptr %mr.addr, align 8
  %is_iommu = getelementptr inbounds %struct.MemoryRegion, ptr %4, i32 0, i32 10
  %5 = load i8, ptr %is_iommu, align 1
  %tobool2 = trunc i8 %5 to i1
  br i1 %tobool2, label %if.then3, label %if.end4

if.then3:                                         ; preds = %if.end
  %6 = load ptr, ptr %mr.addr, align 8
  store ptr %6, ptr %retval, align 8
  br label %return

if.end4:                                          ; preds = %if.end
  store ptr null, ptr %retval, align 8
  br label %return

return:                                           ; preds = %if.end4, %if.then3, %if.then
  %7 = load ptr, ptr %retval, align 8
  ret ptr %7
}

; Function Attrs: nounwind sspstrong uwtable
define internal ptr @flatview_to_dispatch(ptr noundef %fv) #0 {
entry:
  %fv.addr = alloca ptr, align 8
  store ptr %fv, ptr %fv.addr, align 8
  %0 = load ptr, ptr %fv.addr, align 8
  %dispatch = getelementptr inbounds %struct.FlatView, ptr %0, i32 0, i32 5
  %1 = load ptr, ptr %dispatch, align 8
  ret ptr %1
}

; Function Attrs: nounwind sspstrong uwtable
define internal void @flatview_do_translate(ptr noalias sret(%struct.MemoryRegionSection) align 16 %agg.result, ptr noundef %fv, i64 noundef %addr, ptr noundef %xlat, ptr noundef %plen_out, ptr noundef %page_mask_out, i1 noundef zeroext %is_write, i1 noundef zeroext %is_mmio, ptr noundef %target_as, i32 %attrs.coerce) #0 {
entry:
  %attrs = alloca %struct.MemTxAttrs, align 4
  %fv.addr = alloca ptr, align 8
  %addr.addr = alloca i64, align 8
  %xlat.addr = alloca ptr, align 8
  %plen_out.addr = alloca ptr, align 8
  %page_mask_out.addr = alloca ptr, align 8
  %is_write.addr = alloca i8, align 1
  %is_mmio.addr = alloca i8, align 1
  %target_as.addr = alloca ptr, align 8
  %section = alloca ptr, align 8
  %iommu_mr = alloca ptr, align 8
  %plen = alloca i64, align 8
  %coerce.dive = getelementptr inbounds %struct.MemTxAttrs, ptr %attrs, i32 0, i32 0
  store i32 %attrs.coerce, ptr %coerce.dive, align 4
  store ptr %fv, ptr %fv.addr, align 8
  store i64 %addr, ptr %addr.addr, align 8
  store ptr %xlat, ptr %xlat.addr, align 8
  store ptr %plen_out, ptr %plen_out.addr, align 8
  store ptr %page_mask_out, ptr %page_mask_out.addr, align 8
  %frombool = zext i1 %is_write to i8
  store i8 %frombool, ptr %is_write.addr, align 1
  %frombool1 = zext i1 %is_mmio to i8
  store i8 %frombool1, ptr %is_mmio.addr, align 1
  store ptr %target_as, ptr %target_as.addr, align 8
  store i64 -1, ptr %plen, align 8
  %0 = load ptr, ptr %plen_out.addr, align 8
  %tobool = icmp ne ptr %0, null
  br i1 %tobool, label %if.end, label %if.then

if.then:                                          ; preds = %entry
  store ptr %plen, ptr %plen_out.addr, align 8
  br label %if.end

if.end:                                           ; preds = %if.then, %entry
  %1 = load ptr, ptr %fv.addr, align 8
  %call = call ptr @flatview_to_dispatch(ptr noundef %1)
  %2 = load i64, ptr %addr.addr, align 8
  %3 = load ptr, ptr %xlat.addr, align 8
  %4 = load ptr, ptr %plen_out.addr, align 8
  %5 = load i8, ptr %is_mmio.addr, align 1
  %tobool2 = trunc i8 %5 to i1
  %call3 = call ptr @address_space_translate_internal(ptr noundef %call, i64 noundef %2, ptr noundef %3, ptr noundef %4, i1 noundef zeroext %tobool2)
  store ptr %call3, ptr %section, align 8
  %6 = load ptr, ptr %section, align 8
  %mr = getelementptr inbounds %struct.MemoryRegionSection, ptr %6, i32 0, i32 1
  %7 = load ptr, ptr %mr, align 16
  %call4 = call ptr @memory_region_get_iommu(ptr noundef %7)
  store ptr %call4, ptr %iommu_mr, align 8
  %8 = load ptr, ptr %iommu_mr, align 8
  %tobool5 = icmp ne ptr %8, null
  %lnot = xor i1 %tobool5, true
  %lnot6 = xor i1 %lnot, true
  %lnot.ext = zext i1 %lnot6 to i32
  %conv = sext i32 %lnot.ext to i64
  %tobool7 = icmp ne i64 %conv, 0
  br i1 %tobool7, label %if.then8, label %if.end12

if.then8:                                         ; preds = %if.end
  %9 = load ptr, ptr %iommu_mr, align 8
  %10 = load ptr, ptr %xlat.addr, align 8
  %11 = load ptr, ptr %plen_out.addr, align 8
  %12 = load ptr, ptr %page_mask_out.addr, align 8
  %13 = load i8, ptr %is_write.addr, align 1
  %tobool9 = trunc i8 %13 to i1
  %14 = load i8, ptr %is_mmio.addr, align 1
  %tobool10 = trunc i8 %14 to i1
  %15 = load ptr, ptr %target_as.addr, align 8
  %coerce.dive11 = getelementptr inbounds %struct.MemTxAttrs, ptr %attrs, i32 0, i32 0
  %16 = load i32, ptr %coerce.dive11, align 4
  call void @address_space_translate_iommu(ptr sret(%struct.MemoryRegionSection) align 16 %agg.result, ptr noundef %9, ptr noundef %10, ptr noundef %11, ptr noundef %12, i1 noundef zeroext %tobool9, i1 noundef zeroext %tobool10, ptr noundef %15, i32 %16)
  br label %return

if.end12:                                         ; preds = %if.end
  %17 = load ptr, ptr %page_mask_out.addr, align 8
  %tobool13 = icmp ne ptr %17, null
  br i1 %tobool13, label %if.then14, label %if.end15

if.then14:                                        ; preds = %if.end12
  %18 = load ptr, ptr %page_mask_out.addr, align 8
  store i64 4095, ptr %18, align 8
  br label %if.end15

if.end15:                                         ; preds = %if.then14, %if.end12
  %19 = load ptr, ptr %section, align 8
  call void @llvm.memcpy.p0.p0.i64(ptr align 16 %agg.result, ptr align 16 %19, i64 64, i1 false)
  br label %return

return:                                           ; preds = %if.end15, %if.then8
  ret void
}