; Function Attrs: nounwind sspstrong uwtable
define internal fastcc void @flatview_do_translate(ptr noalias nonnull writeonly align 16 captures(none) %agg.result, ptr captures(none) %fv.40.val, i64 noundef %addr, ptr noundef captures(none) %xlat, ptr noundef %plen_out, ptr noundef writeonly %page_mask_out, i1 noundef zeroext %is_write, i1 noundef zeroext %is_mmio, ptr noundef nonnull writeonly captures(none) %target_as, i32 %attrs.coerce) unnamed_addr #0 {
entry:
  %tmp.i = alloca %struct.IOMMUTLBEntry, align 8
  %plen = alloca i64, align 8
  store i64 -1, ptr %plen, align 8
  %tobool.not = icmp eq ptr %plen_out, null
  %spec.store.select = select i1 %tobool.not, ptr %plen, ptr %plen_out
  %call3 = call fastcc ptr @address_space_translate_internal(ptr noundef %fv.40.val, i64 noundef %addr, ptr noundef %xlat, ptr noundef nonnull %spec.store.select, i1 noundef zeroext %is_mmio)
  %mr = getelementptr inbounds nuw i8, ptr %call3, i64 16
  %0 = load ptr, ptr %mr, align 16
  br label %tailrecurse.i

tailrecurse.i:                                    ; preds = %tailrecurse.i, %entry
  %mr.tr.i = phi ptr [ %0, %entry ], [ %1, %tailrecurse.i ]
  %alias.i = getelementptr inbounds nuw i8, ptr %mr.tr.i, i64 160
  %1 = load ptr, ptr %alias.i, align 16
  %tobool.not.i = icmp eq ptr %1, null
  br i1 %tobool.not.i, label %memory_region_get_iommu.exit, label %tailrecurse.i

memory_region_get_iommu.exit:                     ; preds = %tailrecurse.i
  %is_iommu.i = getelementptr inbounds nuw i8, ptr %mr.tr.i, i64 49
  %2 = load i8, ptr %is_iommu.i, align 1
  %tobool2.i = trunc i8 %2 to i1
  br i1 %tobool2.i, label %if.then8, label %if.end12

if.then8:                                         ; preds = %memory_region_get_iommu.exit
  tail call void @llvm.experimental.noalias.scope.decl(metadata !8)
  call void @llvm.lifetime.start.p0(i64 40, ptr nonnull %tmp.i)
  %cond.i = select i1 %is_write, i32 2, i32 1
  %iotlb.sroa.8.0.tmp.sroa_idx.i = getelementptr inbounds nuw i8, ptr %tmp.i, i64 32
  %conv.i = zext i1 %is_write to i32
  %shl.i = shl nuw nsw i32 1, %conv.i
  %iotlb.sroa.4.0.tmp.sroa_idx.i = getelementptr inbounds nuw i8, ptr %tmp.i, i64 24
  %iotlb.sroa.34.0.tmp.sroa_idx.i = getelementptr inbounds nuw i8, ptr %tmp.i, i64 16
  br label %do.body.i

do.body.i:                                        ; preds = %memory_region_get_iommu.exit.i, %if.then8
  %page_mask.0.i = phi i64 [ -1, %if.then8 ], [ %and14.i, %memory_region_get_iommu.exit.i ]
  %iommu_mr.addr.0.i = phi ptr [ %mr.tr.i, %if.then8 ], [ %mr.tr.i.i, %memory_region_get_iommu.exit.i ]
  %3 = load i64, ptr %xlat, align 8, !noalias !8
  %iommu_mr.addr.0.val.i = load ptr, ptr %iommu_mr.addr.0.i, align 8, !noalias !8
  %attrs_to_index.i = getelementptr inbounds nuw i8, ptr %iommu_mr.addr.0.val.i, i64 136
  %4 = load ptr, ptr %attrs_to_index.i, align 8, !noalias !8
  %tobool.not.i9 = icmp eq ptr %4, null
  br i1 %tobool.not.i9, label %if.end.i, label %if.then.i

if.then.i:                                        ; preds = %do.body.i
  %call4.i = call i32 %4(ptr noundef nonnull %iommu_mr.addr.0.i, i32 %attrs.coerce) #28, !noalias !8
  br label %if.end.i

if.end.i:                                         ; preds = %if.then.i, %do.body.i
  %iommu_idx.0.i = phi i32 [ %call4.i, %if.then.i ], [ 0, %do.body.i ]
  %translate.i = getelementptr inbounds nuw i8, ptr %iommu_mr.addr.0.val.i, i64 96
  %5 = load ptr, ptr %translate.i, align 8, !noalias !8
  call void %5(ptr nonnull sret(%struct.IOMMUTLBEntry) align 8 %tmp.i, ptr noundef nonnull %iommu_mr.addr.0.i, i64 noundef %3, i32 noundef %cond.i, i32 noundef %iommu_idx.0.i) #28, !noalias !8
  %iotlb.sroa.8.0.copyload.i = load i32, ptr %iotlb.sroa.8.0.tmp.sroa_idx.i, align 8, !noalias !8
  %and.i = and i32 %iotlb.sroa.8.0.copyload.i, %shl.i
  %tobool7.not.i = icmp eq i32 %and.i, 0
  br i1 %tobool7.not.i, label %unassigned.i, label %if.end9.i

if.end9.i:                                        ; preds = %if.end.i
  %iotlb.sroa.4.0.copyload.i = load i64, ptr %iotlb.sroa.4.0.tmp.sroa_idx.i, align 8, !noalias !8
  %iotlb.sroa.34.0.copyload.i = load i64, ptr %iotlb.sroa.34.0.tmp.sroa_idx.i, align 8, !noalias !8
  %iotlb.sroa.0.0.copyload.i = load ptr, ptr %tmp.i, align 8, !noalias !8
  %not.i = xor i64 %iotlb.sroa.4.0.copyload.i, -1
  %and10.i = and i64 %iotlb.sroa.34.0.copyload.i, %not.i
  %and12.i = and i64 %iotlb.sroa.4.0.copyload.i, %3
  %or.i = or i64 %and10.i, %and12.i
  %6 = load i64, ptr %spec.store.select, align 8, !noalias !8
  %or16.i = or i64 %iotlb.sroa.34.0.copyload.i, %iotlb.sroa.4.0.copyload.i
  %sub.i = add i64 %or16.i, 1
  %add.i = sub i64 %sub.i, %or.i
  %cond19.i = call i64 @llvm.umin.i64(i64 %6, i64 %add.i)
  store i64 %cond19.i, ptr %spec.store.select, align 8, !noalias !8
  store ptr %iotlb.sroa.0.0.copyload.i, ptr %target_as, align 8, !noalias !8
  %current_map.i.i.i = getelementptr inbounds nuw i8, ptr %iotlb.sroa.0.0.copyload.i, i64 32
  %7 = load atomic i64, ptr %current_map.i.i.i monotonic, align 8, !noalias !8
  %8 = inttoptr i64 %7 to ptr
  call void asm sideeffect "", "~{memory},~{dirflag},~{fpsr},~{flags}"() #28, !noalias !8, !srcloc !7
  %9 = getelementptr i8, ptr %8, i64 40
  %call.val.i.i = load ptr, ptr %9, align 8, !noalias !8
  %call24.i = call fastcc ptr @address_space_translate_internal(ptr noundef %call.val.i.i, i64 noundef %or.i, ptr noundef nonnull %xlat, ptr noundef nonnull %spec.store.select, i1 noundef zeroext %is_mmio), !noalias !8
  %mr.i = getelementptr inbounds nuw i8, ptr %call24.i, i64 16
  %10 = load ptr, ptr %mr.i, align 16, !noalias !8
  br label %tailrecurse.i.i

tailrecurse.i.i:                                  ; preds = %tailrecurse.i.i, %if.end9.i
  %mr.tr.i.i = phi ptr [ %10, %if.end9.i ], [ %11, %tailrecurse.i.i ]
  %alias.i.i = getelementptr inbounds nuw i8, ptr %mr.tr.i.i, i64 160
  %11 = load ptr, ptr %alias.i.i, align 16, !noalias !8
  %tobool.not.i.i = icmp eq ptr %11, null
  br i1 %tobool.not.i.i, label %memory_region_get_iommu.exit.i, label %tailrecurse.i.i

memory_region_get_iommu.exit.i:                   ; preds = %tailrecurse.i.i
  %and14.i = and i64 %iotlb.sroa.4.0.copyload.i, %page_mask.0.i
  %is_iommu.i.i = getelementptr inbounds nuw i8, ptr %mr.tr.i.i, i64 49
  %12 = load i8, ptr %is_iommu.i.i, align 1, !noalias !8
  %tobool2.i.i = trunc i8 %12 to i1
  br i1 %tobool2.i.i, label %do.body.i, label %do.end.i, !llvm.loop !11

do.end.i:                                         ; preds = %memory_region_get_iommu.exit.i
  %tobool30.not.i = icmp eq ptr %page_mask_out, null
  br i1 %tobool30.not.i, label %if.end32.i, label %if.then31.i

if.then31.i:                                      ; preds = %do.end.i
  store i64 %and14.i, ptr %page_mask_out, align 8, !noalias !8
  br label %if.end32.i

if.end32.i:                                       ; preds = %if.then31.i, %do.end.i
  call void @llvm.memcpy.p0.p0.i64(ptr noundef nonnull align 16 dereferenceable(64) %agg.result, ptr noundef nonnull align 16 dereferenceable(64) %call24.i, i64 64, i1 false)
  br label %address_space_translate_iommu.exit

unassigned.i:                                     ; preds = %if.end.i
  call void @llvm.memset.p0.i64(ptr noundef nonnull align 16 dereferenceable(64) %agg.result, i8 0, i64 64, i1 false), !alias.scope !8
  %mr33.i = getelementptr inbounds nuw i8, ptr %agg.result, i64 16
  store ptr @io_mem_unassigned, ptr %mr33.i, align 16, !alias.scope !8
  br label %address_space_translate_iommu.exit

address_space_translate_iommu.exit:               ; preds = %if.end32.i, %unassigned.i
  call void @llvm.lifetime.end.p0(i64 40, ptr nonnull %tmp.i)
  br label %return

if.end12:                                         ; preds = %memory_region_get_iommu.exit
  %tobool13.not = icmp eq ptr %page_mask_out, null
  br i1 %tobool13.not, label %if.end15, label %if.then14

if.then14:                                        ; preds = %if.end12
  store i64 4095, ptr %page_mask_out, align 8
  br label %if.end15

if.end15:                                         ; preds = %if.then14, %if.end12
  tail call void @llvm.memcpy.p0.p0.i64(ptr noundef nonnull align 16 dereferenceable(64) %agg.result, ptr noundef nonnull align 16 dereferenceable(64) %call3, i64 64, i1 false)
  br label %return

return:                                           ; preds = %if.end15, %address_space_translate_iommu.exit
  ret void
}